target datalayout = "e-m:e-p270:32:32-p271:32:32-p272:64:64-i64:64-i128:128-f80:128-n8:16:32:64-S128"
target triple = "x86_64-pc-linux-gnu"

%struct.SDL_GPUDevice = type { ptr, ptr, ptr, ptr, ptr, ptr, ptr, ptr, ptr, ptr, ptr, ptr, ptr, ptr, ptr, ptr, ptr, ptr, ptr, ptr, ptr, ptr, ptr, ptr, ptr, ptr, ptr, ptr, ptr, ptr, ptr, ptr, ptr, ptr, ptr, ptr, ptr, ptr, ptr, ptr, ptr, ptr, ptr, ptr, ptr, ptr, ptr, ptr, ptr, ptr, ptr, ptr, ptr, ptr, ptr, ptr, ptr, ptr, ptr, ptr, ptr, ptr, ptr, ptr, ptr, ptr, ptr, ptr, ptr, ptr, ptr, ptr, ptr, ptr, ptr, ptr, ptr, ptr, ptr, ptr, ptr, ptr, ptr, ptr, ptr, i32, i8 }

@.str.3 = private unnamed_addr constant [19 x i8] c"Invalid GPU device\00", align 1
@.str.8 = private unnamed_addr constant [103 x i8] c"generated/home/dtcxzyw/WorkSpace/Projects/compilers/llvm-opt-benchmark/bench/sdl/SDL/src/gpu/SDL_gpu.c\00", align 1
@SDL_GPUTextureSupportsSampleCount_REAL.sdl_assert_data = internal global { i8, [3 x i8], i32, ptr, ptr, i32, [4 x i8], ptr, ptr } { i8 0, [3 x i8] zeroinitializer, i32 0, ptr @.str.10, ptr null, i32 0, [4 x i8] zeroinitializer, ptr null, ptr null }, align 8
@__func__.SDL_GPUTextureSupportsSampleCount_REAL = private unnamed_addr constant [39 x i8] c"SDL_GPUTextureSupportsSampleCount_REAL\00", align 1

; Function Attrs: nounwind uwtable
define hidden zeroext i1 @SDL_GPUTextureSupportsSampleCount_REAL(ptr noundef %0, i32 noundef %1, i32 noundef %2) #0 {
  %4 = alloca i1, align 1
  %5 = alloca ptr, align 8
  %6 = alloca i32, align 4
  %7 = alloca i32, align 4
  %8 = alloca i32, align 4
  %9 = alloca i32, align 4
  store ptr %0, ptr %5, align 8
  store i32 %1, ptr %6, align 4
  store i32 %2, ptr %7, align 4
  %10 = load ptr, ptr %5, align 8
  %11 = icmp eq ptr %10, null
  br i1 %11, label %12, label %14

12:                                               ; preds = %3
  %13 = call zeroext i1 (ptr, ...) @SDL_SetError_REAL(ptr noundef @.str.3)
  store i1 false, ptr %4, align 1
  br label %53

14:                                               ; preds = %3
  %15 = load ptr, ptr %5, align 8
  %16 = getelementptr inbounds nuw %struct.SDL_GPUDevice, ptr %15, i32 0, i32 86
  %17 = load i8, ptr %16, align 4, !range !5, !noundef !6
  %18 = trunc i8 %17 to i1
  br i1 %18, label %19, label %43

19:                                               ; preds = %14
  %20 = load i32, ptr %6, align 4
  %21 = icmp ule i32 %20, 0
  br i1 %21, label %25, label %22

22:                                               ; preds = %19
  %23 = load i32, ptr %6, align 4
  %24 = icmp uge i32 %23, 105
  br i1 %24, label %25, label %42

25:                                               ; preds = %22, %19
  br label %26

26:                                               ; preds = %25
  br label %27

27:                                               ; preds = %26, %38
  call void @llvm.lifetime.start.p0(i64 4, ptr %8) #6
  %28 = call i32 @SDL_ReportAssertion_REAL(ptr noundef @SDL_GPUTextureSupportsSampleCount_REAL.sdl_assert_data, ptr noundef @__func__.SDL_GPUTextureSupportsSampleCount_REAL, ptr noundef @.str.8, i32 noundef 864)
  store i32 %28, ptr %8, align 4
  %29 = load i32, ptr %8, align 4
  %30 = icmp eq i32 %29, 0
  br i1 %30, label %31, label %32

31:                                               ; preds = %27
  store i32 4, ptr %9, align 4
  br label %38

32:                                               ; preds = %27
  %33 = load i32, ptr %8, align 4
  %34 = icmp eq i32 %33, 1
  br i1 %34, label %35, label %36

35:                                               ; preds = %32
  call void @llvm.debugtrap()
  br label %36

36:                                               ; preds = %35, %32
  br label %37

37:                                               ; preds = %36
  store i32 5, ptr %9, align 4
  br label %38

38:                                               ; preds = %37, %31
  call void @llvm.lifetime.end.p0(i64 4, ptr %8) #6
  %39 = load i32, ptr %9, align 4
  switch i32 %39, label %55 [
    i32 4, label %27
    i32 5, label %40
  ]

40:                                               ; preds = %38
  br label %41

41:                                               ; preds = %40
  store i1 false, ptr %4, align 1
  br label %53

42:                                               ; preds = %22
  br label %43

43:                                               ; preds = %42, %14
  %44 = load ptr, ptr %5, align 8
  %45 = getelementptr inbounds nuw %struct.SDL_GPUDevice, ptr %44, i32 0, i32 82
  %46 = load ptr, ptr %45, align 8
  %47 = load ptr, ptr %5, align 8
  %48 = getelementptr inbounds nuw %struct.SDL_GPUDevice, ptr %47, i32 0, i32 83
  %49 = load ptr, ptr %48, align 8
  %50 = load i32, ptr %6, align 4
  %51 = load i32, ptr %7, align 4
  %52 = call zeroext i1 %46(ptr noundef %49, i32 noundef %50, i32 noundef %51)
  store i1 %52, ptr %4, align 1
  br label %53

53:                                               ; preds = %43, %41, %12
  %54 = load i1, ptr %4, align 1
  ret i1 %54

55:                                               ; preds = %38
  unreachable
}