; Function Attrs: nounwind uwtable
define hidden zeroext i1 @SDL_GPUTextureSupportsSampleCount_REAL(ptr noundef readonly captures(address_is_null) %0, i32 noundef %1, i32 noundef %2) local_unnamed_addr #0 {
  %4 = icmp eq ptr %0, null
  br i1 %4, label %5, label %7

5:                                                ; preds = %3
  %6 = tail call zeroext i1 (ptr, ...) @SDL_SetError_REAL(ptr noundef nonnull @.str.3) #7
  br label %.thread

7:                                                ; preds = %3
  %8 = getelementptr inbounds nuw i8, ptr %0, i64 684
  %9 = load i8, ptr %8, align 4, !range !5, !noundef !6
  %10 = trunc nuw i8 %9 to i1
  %11 = add i32 %1, -105
  %or.cond = icmp ult i32 %11, -104
  %or.cond15 = and i1 %or.cond, %10
  br i1 %or.cond15, label %.preheader, label %14

.preheader:                                       ; preds = %7, %.preheader
  %12 = tail call i32 @SDL_ReportAssertion_REAL(ptr noundef nonnull @SDL_GPUTextureSupportsSampleCount_REAL.sdl_assert_data, ptr noundef nonnull @__func__.SDL_GPUTextureSupportsSampleCount_REAL, ptr noundef nonnull @.str.8, i32 noundef 864) #7
  switch i32 %12, label %.thread [
    i32 0, label %.preheader
    i32 1, label %13
  ]

13:                                               ; preds = %.preheader
  tail call void @llvm.debugtrap()
  br label %.thread

14:                                               ; preds = %7
  %15 = getelementptr inbounds nuw i8, ptr %0, i64 656
  %16 = load ptr, ptr %15, align 8
  %17 = getelementptr inbounds nuw i8, ptr %0, i64 664
  %18 = load ptr, ptr %17, align 8
  %19 = tail call zeroext i1 %16(ptr noundef %18, i32 noundef %1, i32 noundef %2) #7
  br label %.thread

.thread:                                          ; preds = %.preheader, %13, %14, %5
  %.012 = phi i1 [ false, %5 ], [ %19, %14 ], [ false, %13 ], [ false, %.preheader ]
  ret i1 %.012
}